ccopy_reg
_reconstructor
p0
(cxgboost.sklearn
XGBClassifier
p1
c__builtin__
object
p2
Ntp3
Rp4
(dp5
S'reg_alpha'
p6
I0
sS'n_jobs'
p7
I1
sS'missing'
p8
Fnan
sS'scale_pos_weight'
p9
I1
sS'_Booster'
p10
NsS'learning_rate'
p11
F0.1
sS'max_delta_step'
p12
I0
sS'base_score'
p13
F0.5
sS'n_estimators'
p14
I100
sS'seed'
p15
NsS'booster'
p16
S'gbtree'
p17
sS'colsample_bytree'
p18
I1
sS'silent'
p19
I01
sS'colsample_bylevel'
p20
I1
sS'nthread'
p21
NsS'min_child_weight'
p22
I1
sS'subsample'
p23
I1
sS'reg_lambda'
p24
I1
sS'random_state'
p25
I0
sS'kwargs'
p26
(dp27
sS'objective'
p28
S'binary:logistic'
p29
sS'max_depth'
p30
I3
sS'gamma'
p31
I0
sb.