ccopy_reg
_reconstructor
p0
(cmlxtend.classifier.stacking_classification
StackingClassifier
p1
c__builtin__
object
p2
Ntp3
Rp4
(dp5
S'use_clones'
p6
I01
sS'use_probas'
p7
I01
sS'named_classifiers'
p8
(dp9
S'xgbclassifier'
p10
g0
(cxgboost.sklearn
XGBClassifier
p11
g2
Ntp12
Rp13
(dp14
S'reg_alpha'
p15
I0
sS'n_jobs'
p16
I1
sS'missing'
p17
Fnan
sS'scale_pos_weight'
p18
I1
sS'_Booster'
p19
NsS'learning_rate'
p20
F0.1
sS'max_delta_step'
p21
I0
sS'base_score'
p22
F0.5
sS'n_estimators'
p23
I100
sS'seed'
p24
NsS'booster'
p25
S'gbtree'
p26
sS'colsample_bytree'
p27
I1
sS'silent'
p28
I01
sS'colsample_bylevel'
p29
I1
sS'nthread'
p30
NsS'min_child_weight'
p31
I1
sS'subsample'
p32
I1
sS'reg_lambda'
p33
I1
sS'random_state'
p34
I0
sS'kwargs'
p35
(dp36
sS'objective'
p37
S'binary:logistic'
p38
sS'max_depth'
p39
I3
sS'gamma'
p40
I0
sbsS'svc'
p41
g0
(csklearn.svm.classes
SVC
p42
g2
Ntp43
Rp44
(dp45
S'_impl'
p46
S'c_svc'
p47
sS'kernel'
p48
S'linear'
p49
sS'C'
p50
F1.0
sS'verbose'
p51
I00
sS'probability'
p52
I01
sS'coef0'
p53
F0.0
sS'epsilon'
p54
F0.0
sS'max_iter'
p55
I-1
sS'decision_function_shape'
p56
S'ovr'
p57
sS'cache_size'
p58
I200
sg34
I0
sS'_sklearn_version'
p59
S'0.19.2'
p60
sS'tol'
p61
F0.001
sS'degree'
p62
I3
sS'shrinking'
p63
I01
sS'nu'
p64
F0.0
sg40
S'auto'
p65
sS'class_weight'
p66
NsbsS'mlpclassifier'
p67
g0
(csklearn.neural_network.multilayer_perceptron
MLPClassifier
p68
g2
Ntp69
Rp70
(dp71
S'shuffle'
p72
I01
sg51
I00
sg34
I0
sg59
g60
sg61
F0.0001
sS'validation_fraction'
p73
F0.1
sS'activation'
p74
S'relu'
p75
sS'momentum'
p76
F0.9
sS'beta_1'
p77
F0.9
sg54
F1e-08
sg20
S'constant'
p78
sg55
I200
sS'batch_size'
p79
g65
sS'alpha'
p80
F0.0001
sS'early_stopping'
p81
I00
sS'warm_start'
p82
I00
sS'loss'
p83
S'log_loss'
p84
sS'beta_2'
p85
F0.999
sS'nesterovs_momentum'
p86
I01
sS'solver'
p87
S'adam'
p88
sS'hidden_layer_sizes'
p89
(I100
tp90
sS'power_t'
p91
F0.5
sS'learning_rate_init'
p92
F0.001
sbssS'use_features_in_secondary'
p93
I00
sS'meta_classifier'
p94
g0
(csklearn.linear_model.logistic
LogisticRegression
p95
g2
Ntp96
Rp97
(dp98
g82
I00
sg50
F1.0
sg16
I1
sg51
I0
sS'fit_intercept'
p99
I01
sg55
I100
sS'intercept_scaling'
p100
I1
sS'penalty'
p101
S'l2'
p102
sS'multi_class'
p103
g57
sg34
Nsg59
g60
sS'dual'
p104
I00
sg61
F0.0001
sg87
S'liblinear'
p105
sg66
NsbsS'store_train_meta_features'
p106
I00
sS'average_probas'
p107
I00
sS'classifiers'
p108
(lp109
g13
ag44
ag70
asS'named_meta_classifier'
p110
(dp111
S'meta-logisticregression'
p112
g97
ssg51
I0
sb.