ccopy_reg
_reconstructor
p0
(cmlxtend.classifier.ensemble_vote
EnsembleVoteClassifier
p1
c__builtin__
object
p2
Ntp3
Rp4
(dp5
S'weights'
p6
(lp7
I1
aI2
aI2
aI1
asS'verbose'
p8
I2
sS'named_clfs'
p9
(dp10
S'xgbclassifier'
p11
g0
(cxgboost.sklearn
XGBClassifier
p12
g2
Ntp13
Rp14
(dp15
S'reg_alpha'
p16
I0
sS'n_jobs'
p17
I1
sS'missing'
p18
Fnan
sS'scale_pos_weight'
p19
I1
sS'_Booster'
p20
NsS'learning_rate'
p21
F0.1
sS'max_delta_step'
p22
I0
sS'base_score'
p23
F0.5
sS'n_estimators'
p24
I100
sS'seed'
p25
NsS'booster'
p26
S'gbtree'
p27
sS'colsample_bytree'
p28
I1
sS'silent'
p29
I01
sS'colsample_bylevel'
p30
I1
sS'nthread'
p31
NsS'min_child_weight'
p32
I1
sS'subsample'
p33
I1
sS'reg_lambda'
p34
I1
sS'random_state'
p35
I0
sS'kwargs'
p36
(dp37
sS'objective'
p38
S'binary:logistic'
p39
sS'max_depth'
p40
I3
sS'gamma'
p41
I0
sbsS'logisticregression'
p42
g0
(csklearn.linear_model.logistic
LogisticRegression
p43
g2
Ntp44
Rp45
(dp46
S'warm_start'
p47
I00
sS'C'
p48
F1.0
sg17
I1
sg8
I0
sS'fit_intercept'
p49
I01
sS'max_iter'
p50
I100
sS'intercept_scaling'
p51
I1
sS'penalty'
p52
S'l2'
p53
sS'multi_class'
p54
S'ovr'
p55
sg35
I0
sS'_sklearn_version'
p56
S'0.19.2'
p57
sS'dual'
p58
I00
sS'tol'
p59
F0.0001
sS'solver'
p60
S'liblinear'
p61
sS'class_weight'
p62
NsbsS'svc'
p63
g0
(csklearn.svm.classes
SVC
p64
g2
Ntp65
Rp66
(dp67
S'_impl'
p68
S'c_svc'
p69
sS'kernel'
p70
S'linear'
p71
sg48
F1.0
sg8
I00
sS'probability'
p72
I01
sS'coef0'
p73
F0.0
sS'epsilon'
p74
F0.0
sg50
I-1
sS'decision_function_shape'
p75
g55
sS'cache_size'
p76
I200
sg35
I0
sg56
g57
sg59
F0.001
sS'degree'
p77
I3
sS'shrinking'
p78
I01
sS'nu'
p79
F0.0
sg41
S'auto'
p80
sg62
NsbsS'mlpclassifier'
p81
g0
(csklearn.neural_network.multilayer_perceptron
MLPClassifier
p82
g2
Ntp83
Rp84
(dp85
S'shuffle'
p86
I01
sg8
I00
sg35
I0
sg56
g57
sg59
F0.0001
sS'validation_fraction'
p87
F0.1
sS'activation'
p88
S'relu'
p89
sS'momentum'
p90
F0.9
sS'beta_1'
p91
F0.9
sg74
F1e-08
sg21
S'constant'
p92
sg50
I200
sS'batch_size'
p93
g80
sS'alpha'
p94
F0.0001
sS'early_stopping'
p95
I00
sg47
I00
sS'loss'
p96
S'log_loss'
p97
sS'beta_2'
p98
F0.999
sS'nesterovs_momentum'
p99
I01
sg60
S'adam'
p100
sS'hidden_layer_sizes'
p101
(I100
tp102
sS'power_t'
p103
F0.5
sS'learning_rate_init'
p104
F0.001
sbssS'voting'
p105
S'soft'
p106
sS'clfs'
p107
(lp108
g45
ag14
ag66
ag84
asS'refit'
p109
I01
sb.